target datalayout = "e-m:e-p270:32:32-p271:32:32-p272:64:64-i64:64-i128:128-f80:128-n8:16:32:64-S128"
target triple = "x86_64-pc-linux-gnu"

@.str.343 = private unnamed_addr constant [30 x i8] c"UDP based FTP w/ multicast V4\00", align 1
@.str.344 = private unnamed_addr constant [6 x i8] c"UFTP4\00", align 1
@.str.345 = private unnamed_addr constant [6 x i8] c"uftp4\00", align 1
@proto_uftp = internal global i32 0, align 4

; Function Attrs: null_pointer_is_valid sspstrong uwtable
define hidden void @proto_register_uftp4() #0 {
  %1 = alloca ptr, align 8
  call void @llvm.lifetime.start.p0(i64 8, ptr %1) #5
  %2 = call i32 @proto_register_protocol(ptr noundef @.str.343, ptr noundef @.str.344, ptr noundef @.str.345)
  store i32 %2, ptr @proto_uftp, align 4
  %3 = load i32, ptr @proto_uftp, align 4
  call void @proto_register_field_array(i32 noundef %3, ptr noundef @proto_register_uftp4.hf, i32 noundef 229)
  call void @proto_register_subtree_array(ptr noundef @proto_register_uftp4.ett, i32 noundef 38)
  %4 = load i32, ptr @proto_uftp, align 4
  %5 = call ptr @register_dissector(ptr noundef @.str.345, ptr noundef @dissect_uftp, i32 noundef %4)
  %6 = load i32, ptr @proto_uftp, align 4
  %7 = call ptr @expert_register_protocol(i32 noundef %6)
  store ptr %7, ptr %1, align 8
  %8 = load ptr, ptr %1, align 8
  call void @expert_register_field_array(ptr noundef %8, ptr noundef @proto_register_uftp4.ei, i32 noundef 2)
  call void @llvm.lifetime.end.p0(i64 8, ptr %1) #5
  ret void
}