; Function Attrs: null_pointer_is_valid sspstrong uwtable
define hidden void @proto_register_uftp4() local_unnamed_addr #0 {
  %1 = tail call i32 @proto_register_protocol(ptr noundef nonnull @.str.343, ptr noundef nonnull @.str.344, ptr noundef nonnull @.str.345)
  store i32 %1, ptr @proto_uftp, align 4
  tail call void @proto_register_field_array(i32 noundef %1, ptr noundef nonnull @proto_register_uftp4.hf, i32 noundef 229)
  tail call void @proto_register_subtree_array(ptr noundef nonnull @proto_register_uftp4.ett, i32 noundef 38)
  %2 = load i32, ptr @proto_uftp, align 4
  %3 = tail call ptr @register_dissector(ptr noundef nonnull @.str.345, ptr noundef nonnull @dissect_uftp, i32 noundef %2)
  %4 = load i32, ptr @proto_uftp, align 4
  %5 = tail call ptr @expert_register_protocol(i32 noundef %4)
  tail call void @expert_register_field_array(ptr noundef %5, ptr noundef nonnull @proto_register_uftp4.ei, i32 noundef 2)
  ret void
}